target datalayout = "e-m:e-p270:32:32-p271:32:32-p272:64:64-i64:64-i128:128-f80:128-n8:16:32:64-S128"
target triple = "x86_64-pc-linux-gnu"

%struct.Curl_sockaddr_ex = type { i32, i32, i32, i32, %union.anon }
%union.anon = type { %struct.Curl_sockaddr_storage }
%struct.Curl_sockaddr_storage = type { %union.anon.0 }
%union.anon.0 = type { %struct.sockaddr_storage }
%struct.sockaddr_storage = type { i16, [118 x i8], i64 }
%struct.Curl_easy = type { i32, i64, i64, ptr, %struct.Curl_llist_node, %struct.Curl_llist_node, i32, i32, %struct.Curl_message, %struct.easy_pollset, %struct.Names, ptr, ptr, ptr, ptr, %struct.SingleRequest, %struct.UserDefined, ptr, ptr, ptr, %struct.Progress, %struct.UrlState, ptr, %struct.PureInfo, %struct.curl_tlssessioninfo }
%struct.Curl_llist_node = type { ptr, ptr, ptr, ptr }
%struct.Curl_message = type { %struct.Curl_llist_node, %struct.CURLMsg }
%struct.CURLMsg = type { i32, ptr, %union.anon.3 }
%union.anon.3 = type { ptr }
%struct.easy_pollset = type { [5 x i32], i32, [5 x i8] }
%struct.Names = type { ptr, i32 }
%struct.SingleRequest = type <{ i64, i64, i64, i64, %struct.curltime, i32, i32, i32, i32, i64, i32, i32, i8, i8, [2 x i8], i32, ptr, ptr, %struct.bufq, i64, i64, ptr, ptr, %union.anon.4, ptr, i8, i32, [3 x i8] }>
%struct.curltime = type { i64, i32 }
%struct.bufq = type { ptr, ptr, ptr, ptr, i64, i64, i64, i32 }
%union.anon.4 = type { ptr }
%struct.UserDefined = type <{ ptr, ptr, ptr, ptr, ptr, ptr, i64, i64, i64, ptr, ptr, i64, ptr, ptr, ptr, ptr, ptr, ptr, ptr, ptr, ptr, ptr, ptr, ptr, ptr, ptr, ptr, ptr, ptr, ptr, ptr, ptr, ptr, ptr, ptr, i64, i64, i64, i64, i64, i64, i64, i64, i64, ptr, ptr, %struct.curl_mimepart, ptr, ptr, ptr, i64, %struct.ssl_config_data, %struct.ssl_config_data, ptr, i16, i8, i8, %struct.ssl_general_config, i32, i32, i32, [4 x i8], ptr, ptr, i64, i32, i8, i8, i8, i8, ptr, ptr, ptr, i32, [4 x i8], [74 x ptr], [8 x ptr], i32, i32, i32, [4 x i8], ptr, i32, [4 x i8], ptr, ptr, ptr, ptr, ptr, i32, i32, i32, i32, i32, i32, i32, i32, i64, ptr, ptr, i64, ptr, i64, ptr, ptr, ptr, ptr, i32, i16, i16, i16, i8, i8, i8, i8, i8, i8, i8, i8, i64, [6 x i8] }>
%struct.curl_mimepart = type { ptr, ptr, i32, i32, ptr, ptr, ptr, ptr, ptr, ptr, ptr, ptr, ptr, ptr, ptr, i64, %struct.mime_state, ptr, %struct.mime_encoder_state, i64 }
%struct.mime_state = type { i32, ptr, i64 }
%struct.mime_encoder_state = type { i64, i64, i64, [256 x i8] }
%struct.ssl_config_data = type { %struct.ssl_primary_config, i64, ptr, ptr, ptr, ptr, ptr, ptr, ptr, i16 }
%struct.ssl_primary_config = type { ptr, ptr, ptr, ptr, ptr, ptr, ptr, ptr, ptr, ptr, ptr, ptr, ptr, ptr, i8, i32, i8, i8 }
%struct.ssl_general_config = type { i32 }
%struct.Progress = type { i64, %struct.pgrs_dir, %struct.pgrs_dir, i64, i64, i32, i32, i64, i64, i64, i64, i64, i64, i64, i64, i64, %struct.curltime, %struct.curltime, %struct.curltime, %struct.curltime, %struct.curltime, [6 x i64], [6 x %struct.curltime], i32, i8 }
%struct.pgrs_dir = type { i64, i64, i64, %struct.pgrs_measure }
%struct.pgrs_measure = type { %struct.curltime, i64 }
%struct.UrlState = type { %struct.curltime, i64, i64, %struct.dynbuf, ptr, i64, ptr, i32, i32, i32, ptr, i32, i64, i32, ptr, %struct.digestdata, %struct.digestdata, %struct.auth, %struct.auth, %struct.Curl_async, ptr, i8, %struct.curltime, %struct.Curl_tree, %struct.Curl_llist, [15 x %struct.time_node], ptr, ptr, i64, i64, i64, i64, [32 x i8], i64, ptr, ptr, ptr, %struct.urlpieces, ptr, ptr, ptr, ptr, ptr, i64, %struct.dynbuf, %struct.Curl_llist, [2 x %struct.curl_header], ptr, i32, ptr, ptr, %struct.store_netrc, %struct.dynamically_allocated_data, i8, i8, i8, i8, i32 }
%struct.digestdata = type { ptr, ptr, ptr, ptr, ptr, ptr, i32, i8, i8 }
%struct.auth = type { i64, i64, i64, i8 }
%struct.Curl_async = type { ptr, ptr, ptr, ptr, i32, i32, i8 }
%struct.Curl_tree = type { ptr, ptr, ptr, ptr, %struct.curltime, ptr }
%struct.time_node = type { %struct.Curl_llist_node, %struct.curltime, i32 }
%struct.urlpieces = type { ptr, ptr, ptr, ptr, ptr, ptr, ptr, ptr }
%struct.dynbuf = type { ptr, i64, i64, i64 }
%struct.Curl_llist = type { ptr, ptr, ptr, i64 }
%struct.curl_header = type { ptr, ptr, i64, i64, i32, ptr }
%struct.store_netrc = type { %struct.dynbuf, ptr, i8 }
%struct.dynamically_allocated_data = type { ptr, ptr, ptr, ptr, ptr, ptr, ptr, ptr, ptr, ptr, ptr, ptr, ptr, ptr }
%struct.PureInfo = type { i32, i32, i32, i64, i64, i64, i64, i64, i64, i64, ptr, ptr, i64, i32, %struct.ip_quadruple, i32, ptr, i32, %struct.curl_certinfo, i32, i8 }
%struct.ip_quadruple = type { [46 x i8], [46 x i8], i32, i32 }
%struct.curl_certinfo = type { i32, ptr }
%struct.curl_tlssessioninfo = type { i32, ptr }
%struct.connectdata = type { %struct.Curl_llist_node, ptr, ptr, i64, ptr, i64, ptr, ptr, %struct.hostname, ptr, ptr, %struct.hostname, %struct.proxy_info, %struct.proxy_info, %struct.ip_quadruple, %struct.ip_quadruple, ptr, ptr, ptr, ptr, ptr, %struct.curltime, %struct.curltime, %struct.curltime, [2 x i32], [2 x ptr], [2 x ptr], [2 x ptr], %struct.anon, %struct.easy_pollset, %struct.ssl_primary_config, %struct.ssl_primary_config, %struct.ConnectBits, ptr, ptr, %struct.curltime, i32, i32, %struct.Curl_llist, i32, i32, %struct.ntlmdata, %struct.ntlmdata, %union.anon.2, ptr, ptr, i16, i32, i32, i32, i32, i16, i16, i8, i8, i8, i8, i8, i8, i8 }
%struct.hostname = type { ptr, ptr, ptr, ptr }
%struct.proxy_info = type { %struct.hostname, i32, i8, ptr, ptr }
%struct.anon = type { [2 x %struct.curltime], i32 }
%struct.ConnectBits = type { i64 }
%struct.ntlmdata = type { i32, [8 x i8], i32, ptr }
%union.anon.2 = type { %struct.ftp_conn }
%struct.ftp_conn = type { %struct.pingpong, ptr, ptr, ptr, ptr, ptr, ptr, ptr, i8, i64, ptr, i64, i32, i32, i32, i32, i32, i16, i8, i8, i8, i8, i8 }
%struct.pingpong = type { i64, i8, ptr, i64, i64, %struct.curltime, i64, %struct.dynbuf, %struct.dynbuf, i64, i64, ptr, ptr }
%struct.Curl_cfilter = type { ptr, ptr, ptr, ptr, i32, i8 }
%struct.cf_socket_ctx = type { i32, %struct.Curl_sockaddr_ex, i32, %struct.ip_quadruple, %struct.curltime, %struct.curltime, %struct.curltime, i32, i8 }
%union.__SOCKADDR_ARG = type { ptr }
%struct.Curl_handler = type { ptr, ptr, ptr, ptr, ptr, ptr, ptr, ptr, ptr, ptr, ptr, ptr, ptr, ptr, ptr, ptr, ptr, ptr, i32, i32, i32, i32 }

@.str.58 = private unnamed_addr constant [39 x i8] c"getsockname() failed with errno %d: %s\00", align 1
@.str.59 = private unnamed_addr constant [43 x i8] c"ssloc inet_ntop() failed with errno %d: %s\00", align 1

; Function Attrs: nounwind uwtable
define internal i32 @set_local_ip(ptr noundef %0, ptr noundef %1) #0 {
  %3 = alloca i32, align 4
  %4 = alloca ptr, align 8
  %5 = alloca ptr, align 8
  %6 = alloca ptr, align 8
  %7 = alloca [256 x i8], align 16
  %8 = alloca %struct.Curl_sockaddr_storage, align 8
  %9 = alloca i32, align 4
  %10 = alloca %union.__SOCKADDR_ARG, align 8
  %11 = alloca i32, align 4
  %12 = alloca i32, align 4
  store ptr %0, ptr %4, align 8, !tbaa !118
  store ptr %1, ptr %5, align 8, !tbaa !23
  call void @llvm.lifetime.start.p0(i64 8, ptr %6) #9
  %13 = load ptr, ptr %4, align 8, !tbaa !118
  %14 = getelementptr inbounds nuw %struct.Curl_cfilter, ptr %13, i32 0, i32 2
  %15 = load ptr, ptr %14, align 8, !tbaa !120
  store ptr %15, ptr %6, align 8, !tbaa !123
  %16 = load ptr, ptr %6, align 8, !tbaa !123
  %17 = getelementptr inbounds nuw %struct.cf_socket_ctx, ptr %16, i32 0, i32 2
  %18 = load i32, ptr %17, align 8, !tbaa !137
  %19 = icmp ne i32 %18, -1
  br i1 %19, label %20, label %68

20:                                               ; preds = %2
  %21 = load ptr, ptr %5, align 8, !tbaa !23
  %22 = getelementptr inbounds nuw %struct.Curl_easy, ptr %21, i32 0, i32 3
  %23 = load ptr, ptr %22, align 8, !tbaa !95
  %24 = getelementptr inbounds nuw %struct.connectdata, ptr %23, i32 0, i32 33
  %25 = load ptr, ptr %24, align 8, !tbaa !167
  %26 = getelementptr inbounds nuw %struct.Curl_handler, ptr %25, i32 0, i32 19
  %27 = load i32, ptr %26, align 4, !tbaa !168
  %28 = and i32 %27, 2048
  %29 = icmp ne i32 %28, 0
  br i1 %29, label %68, label %30

30:                                               ; preds = %20
  call void @llvm.lifetime.start.p0(i64 256, ptr %7) #9
  call void @llvm.lifetime.start.p0(i64 128, ptr %8) #9
  call void @llvm.lifetime.start.p0(i64 4, ptr %9) #9
  store i32 128, ptr %9, align 4, !tbaa !10
  call void @llvm.memset.p0.i64(ptr align 8 %8, i8 0, i64 128, i1 false)
  %31 = load ptr, ptr %6, align 8, !tbaa !123
  %32 = getelementptr inbounds nuw %struct.cf_socket_ctx, ptr %31, i32 0, i32 2
  %33 = load i32, ptr %32, align 8, !tbaa !137
  store ptr %8, ptr %10, align 8, !tbaa !116
  %34 = getelementptr inbounds nuw %union.__SOCKADDR_ARG, ptr %10, i32 0, i32 0
  %35 = load ptr, ptr %34, align 8
  %36 = call i32 @getsockname(i32 noundef %33, ptr %35, ptr noundef %9) #9
  %37 = icmp ne i32 %36, 0
  br i1 %37, label %38, label %46

38:                                               ; preds = %30
  call void @llvm.lifetime.start.p0(i64 4, ptr %11) #9
  %39 = call ptr @__errno_location() #11
  %40 = load i32, ptr %39, align 4, !tbaa !10
  store i32 %40, ptr %11, align 4, !tbaa !10
  %41 = load ptr, ptr %5, align 8, !tbaa !23
  %42 = load i32, ptr %11, align 4, !tbaa !10
  %43 = load i32, ptr %11, align 4, !tbaa !10
  %44 = getelementptr inbounds [256 x i8], ptr %7, i64 0, i64 0
  %45 = call ptr @Curl_strerror(i32 noundef %43, ptr noundef %44, i64 noundef 256)
  call void (ptr, ptr, ...) @Curl_failf(ptr noundef %41, ptr noundef @.str.58, i32 noundef %42, ptr noundef %45)
  store i32 2, ptr %3, align 4
  store i32 1, ptr %12, align 4
  call void @llvm.lifetime.end.p0(i64 4, ptr %11) #9
  br label %65

46:                                               ; preds = %30
  %47 = load i32, ptr %9, align 4, !tbaa !10
  %48 = load ptr, ptr %6, align 8, !tbaa !123
  %49 = getelementptr inbounds nuw %struct.cf_socket_ctx, ptr %48, i32 0, i32 3
  %50 = getelementptr inbounds nuw %struct.ip_quadruple, ptr %49, i32 0, i32 1
  %51 = getelementptr inbounds [46 x i8], ptr %50, i64 0, i64 0
  %52 = load ptr, ptr %6, align 8, !tbaa !123
  %53 = getelementptr inbounds nuw %struct.cf_socket_ctx, ptr %52, i32 0, i32 3
  %54 = getelementptr inbounds nuw %struct.ip_quadruple, ptr %53, i32 0, i32 3
  %55 = call zeroext i1 @Curl_addr2string(ptr noundef %8, i32 noundef %47, ptr noundef %51, ptr noundef %54)
  br i1 %55, label %64, label %56

56:                                               ; preds = %46
  %57 = load ptr, ptr %5, align 8, !tbaa !23
  %58 = call ptr @__errno_location() #11
  %59 = load i32, ptr %58, align 4, !tbaa !10
  %60 = call ptr @__errno_location() #11
  %61 = load i32, ptr %60, align 4, !tbaa !10
  %62 = getelementptr inbounds [256 x i8], ptr %7, i64 0, i64 0
  %63 = call ptr @Curl_strerror(i32 noundef %61, ptr noundef %62, i64 noundef 256)
  call void (ptr, ptr, ...) @Curl_failf(ptr noundef %57, ptr noundef @.str.59, i32 noundef %59, ptr noundef %63)
  store i32 2, ptr %3, align 4
  store i32 1, ptr %12, align 4
  br label %65

64:                                               ; preds = %46
  store i32 0, ptr %12, align 4
  br label %65

65:                                               ; preds = %64, %56, %38
  call void @llvm.lifetime.end.p0(i64 4, ptr %9) #9
  call void @llvm.lifetime.end.p0(i64 128, ptr %8) #9
  call void @llvm.lifetime.end.p0(i64 256, ptr %7) #9
  %66 = load i32, ptr %12, align 4
  switch i32 %66, label %69 [
    i32 0, label %67
  ]

67:                                               ; preds = %65
  br label %68

68:                                               ; preds = %67, %20, %2
  store i32 0, ptr %3, align 4
  store i32 1, ptr %12, align 4
  br label %69

69:                                               ; preds = %68, %65
  call void @llvm.lifetime.end.p0(i64 8, ptr %6) #9
  %70 = load i32, ptr %3, align 4
  ret i32 %70
}