; Function Attrs: nounwind uwtable
define internal fastcc void @set_local_ip(ptr %.16.val, ptr noundef %0) unnamed_addr #2 {
  %2 = alloca [256 x i8], align 16
  %3 = alloca %struct.Curl_sockaddr_storage, align 8
  %4 = alloca i32, align 4
  %5 = getelementptr inbounds nuw i8, ptr %.16.val, i64 152
  %6 = load i32, ptr %5, align 8, !tbaa !116
  %.not = icmp eq i32 %6, -1
  br i1 %.not, label %25, label %7

7:                                                ; preds = %1
  %8 = getelementptr inbounds nuw i8, ptr %0, i64 24
  %9 = load ptr, ptr %8, align 8, !tbaa !88
  %10 = getelementptr inbounds nuw i8, ptr %9, i64 960
  %11 = load ptr, ptr %10, align 8, !tbaa !148
  %12 = getelementptr inbounds nuw i8, ptr %11, i64 148
  %13 = load i32, ptr %12, align 4, !tbaa !149
  %14 = and i32 %13, 2048
  %.not12 = icmp eq i32 %14, 0
  br i1 %.not12, label %15, label %25

15:                                               ; preds = %7
  call void @llvm.lifetime.start.p0(i64 256, ptr nonnull %2) #13
  call void @llvm.lifetime.start.p0(i64 128, ptr nonnull %3) #13
  call void @llvm.lifetime.start.p0(i64 4, ptr nonnull %4) #13
  store i32 128, ptr %4, align 4, !tbaa !87
  call void @llvm.memset.p0.i64(ptr noundef nonnull align 8 dereferenceable(128) %3, i8 0, i64 128, i1 false)
  %16 = call i32 @getsockname(i32 noundef %6, ptr nonnull %3, ptr noundef nonnull %4) #13
  %.not13 = icmp eq i32 %16, 0
  br i1 %.not13, label %17, label %.critedge

17:                                               ; preds = %15
  %18 = load i32, ptr %4, align 4, !tbaa !87
  %19 = getelementptr inbounds nuw i8, ptr %.16.val, i64 202
  %20 = getelementptr inbounds nuw i8, ptr %.16.val, i64 252
  %21 = call zeroext i1 @Curl_addr2string(ptr noundef nonnull %3, i32 noundef %18, ptr noundef nonnull %19, ptr noundef nonnull %20) #13
  br i1 %21, label %.sink.split, label %.critedge

.critedge:                                        ; preds = %17, %15
  %.str.59.sink = phi ptr [ @.str.58, %15 ], [ @.str.59, %17 ]
  %22 = tail call ptr @__errno_location() #15
  %23 = load i32, ptr %22, align 4, !tbaa !87
  %24 = call ptr @Curl_strerror(i32 noundef %23, ptr noundef nonnull %2, i64 noundef 256) #13
  call void (ptr, ptr, ...) @Curl_failf(ptr noundef nonnull %0, ptr noundef nonnull %.str.59.sink, i32 noundef %23, ptr noundef %24) #13
  br label %.sink.split

.sink.split:                                      ; preds = %17, %.critedge
  call void @llvm.lifetime.end.p0(i64 4, ptr nonnull %4) #13
  call void @llvm.lifetime.end.p0(i64 128, ptr nonnull %3) #13
  call void @llvm.lifetime.end.p0(i64 256, ptr nonnull %2) #13
  br label %25

25:                                               ; preds = %.sink.split, %1, %7
  ret void
}